target datalayout = "e-m:e-p270:32:32-p271:32:32-p272:64:64-i64:64-i128:128-f80:128-n8:16:32:64-S128"
target triple = "x86_64-pc-linux-gnu"

%struct.P9Req = type { ptr, ptr, i16, i64, i32, i64, i64, i64, i32 }
%struct.V9fsDirent = type { [13 x i8], i64, i8, ptr, ptr }

@alloc = internal global ptr null, align 8

; Function Attrs: inlinehint nounwind sspstrong uwtable
define internal void @le16_to_cpus(ptr noundef %0) #3 {
  %2 = alloca ptr, align 8
  store ptr %0, ptr %2, align 8
  ret void
}

; Function Attrs: nounwind sspstrong uwtable
define dso_local void @v9fs_memskip(ptr noundef %0, i64 noundef %1) #0 {
  %3 = alloca ptr, align 8
  %4 = alloca i64, align 8
  store ptr %0, ptr %3, align 8
  store i64 %1, ptr %4, align 8
  %5 = load i64, ptr %4, align 8
  %6 = load ptr, ptr %3, align 8
  %7 = getelementptr inbounds nuw %struct.P9Req, ptr %6, i32 0, i32 7
  %8 = load i64, ptr %7, align 8
  %9 = add i64 %8, %5
  store i64 %9, ptr %7, align 8
  ret void
}

; Function Attrs: nounwind sspstrong uwtable
define dso_local void @v9fs_uint16_read(ptr noundef %0, ptr noundef %1) #0 {
  %3 = alloca ptr, align 8
  %4 = alloca ptr, align 8
  store ptr %0, ptr %3, align 8
  store ptr %1, ptr %4, align 8
  %5 = load ptr, ptr %3, align 8
  %6 = load ptr, ptr %4, align 8
  call void @v9fs_memread(ptr noundef %5, ptr noundef %6, i64 noundef 2)
  %7 = load ptr, ptr %4, align 8
  call void @le16_to_cpus(ptr noundef %7)
  ret void
}

; Function Attrs: inlinehint nounwind sspstrong uwtable
define internal void @le64_to_cpus(ptr noundef %0) #3 {
  %2 = alloca ptr, align 8
  store ptr %0, ptr %2, align 8
  ret void
}

; Function Attrs: inlinehint nounwind sspstrong uwtable
define internal void @le32_to_cpus(ptr noundef %0) #3 {
  %2 = alloca ptr, align 8
  store ptr %0, ptr %2, align 8
  ret void
}

; Function Attrs: nounwind sspstrong uwtable
define dso_local void @v9fs_req_free(ptr noundef %0) #0 {
  %2 = alloca ptr, align 8
  store ptr %0, ptr %2, align 8
  %3 = load ptr, ptr @alloc, align 8
  %4 = load ptr, ptr %2, align 8
  %5 = getelementptr inbounds nuw %struct.P9Req, ptr %4, i32 0, i32 3
  %6 = load i64, ptr %5, align 8
  call void @guest_free(ptr noundef %3, i64 noundef %6)
  %7 = load ptr, ptr @alloc, align 8
  %8 = load ptr, ptr %2, align 8
  %9 = getelementptr inbounds nuw %struct.P9Req, ptr %8, i32 0, i32 5
  %10 = load i64, ptr %9, align 8
  call void @guest_free(ptr noundef %7, i64 noundef %10)
  %11 = load ptr, ptr %2, align 8
  call void @g_free(ptr noundef %11)
  ret void
}

; Function Attrs: nounwind sspstrong uwtable
define dso_local void @v9fs_free_dirents(ptr noundef %0) #0 {
  %2 = alloca ptr, align 8
  %3 = alloca ptr, align 8
  store ptr %0, ptr %2, align 8
  call void @llvm.lifetime.start.p0(i64 8, ptr %3) #13
  store ptr null, ptr %3, align 8
  br label %4

4:                                                ; preds = %15, %1
  %5 = load ptr, ptr %2, align 8
  %6 = icmp ne ptr %5, null
  br i1 %6, label %7, label %17

7:                                                ; preds = %4
  %8 = load ptr, ptr %2, align 8
  %9 = getelementptr inbounds nuw %struct.V9fsDirent, ptr %8, i32 0, i32 4
  %10 = load ptr, ptr %9, align 8
  store ptr %10, ptr %3, align 8
  %11 = load ptr, ptr %2, align 8
  %12 = getelementptr inbounds nuw %struct.V9fsDirent, ptr %11, i32 0, i32 3
  %13 = load ptr, ptr %12, align 8
  call void @g_free(ptr noundef %13)
  %14 = load ptr, ptr %2, align 8
  call void @g_free(ptr noundef %14)
  br label %15

15:                                               ; preds = %7
  %16 = load ptr, ptr %3, align 8
  store ptr %16, ptr %2, align 8
  br label %4, !llvm.loop !14

17:                                               ; preds = %4
  call void @llvm.lifetime.end.p0(i64 8, ptr %3) #13
  ret void
}

; Function Attrs: nounwind sspstrong uwtable
define dso_local void @v9fs_string_read(ptr noundef %0, ptr noundef %1, ptr noundef %2) #0 {
  %4 = alloca ptr, align 8
  %5 = alloca ptr, align 8
  %6 = alloca ptr, align 8
  %7 = alloca i16, align 2
  store ptr %0, ptr %4, align 8
  store ptr %1, ptr %5, align 8
  store ptr %2, ptr %6, align 8
  call void @llvm.lifetime.start.p0(i64 2, ptr %7) #13
  store i16 0, ptr %7, align 2, !annotation !4
  %8 = load ptr, ptr %4, align 8
  call void @v9fs_uint16_read(ptr noundef %8, ptr noundef %7)
  %9 = load ptr, ptr %5, align 8
  %10 = icmp ne ptr %9, null
  br i1 %10, label %11, label %14

11:                                               ; preds = %3
  %12 = load i16, ptr %7, align 2
  %13 = load ptr, ptr %5, align 8
  store i16 %12, ptr %13, align 2
  br label %14

14:                                               ; preds = %11, %3
  %15 = load ptr, ptr %6, align 8
  %16 = icmp ne ptr %15, null
  br i1 %16, label %17, label %34

17:                                               ; preds = %14
  %18 = load i16, ptr %7, align 2
  %19 = zext i16 %18 to i32
  %20 = add i32 %19, 1
  %21 = sext i32 %20 to i64
  %22 = call noalias ptr @g_malloc(i64 noundef %21) #15
  %23 = load ptr, ptr %6, align 8
  store ptr %22, ptr %23, align 8
  %24 = load ptr, ptr %4, align 8
  %25 = load ptr, ptr %6, align 8
  %26 = load ptr, ptr %25, align 8
  %27 = load i16, ptr %7, align 2
  %28 = zext i16 %27 to i64
  call void @v9fs_memread(ptr noundef %24, ptr noundef %26, i64 noundef %28)
  %29 = load ptr, ptr %6, align 8
  %30 = load ptr, ptr %29, align 8
  %31 = load i16, ptr %7, align 2
  %32 = zext i16 %31 to i64
  %33 = getelementptr inbounds nuw i8, ptr %30, i64 %32
  store i8 0, ptr %33, align 1
  br label %38

34:                                               ; preds = %14
  %35 = load ptr, ptr %4, align 8
  %36 = load i16, ptr %7, align 2
  %37 = zext i16 %36 to i64
  call void @v9fs_memskip(ptr noundef %35, i64 noundef %37)
  br label %38

38:                                               ; preds = %34, %17
  call void @llvm.lifetime.end.p0(i64 2, ptr %7) #13
  ret void
}

; Function Attrs: nounwind sspstrong uwtable
define dso_local void @v9fs_uint8_read(ptr noundef %0, ptr noundef %1) #0 {
  %3 = alloca ptr, align 8
  %4 = alloca ptr, align 8
  store ptr %0, ptr %3, align 8
  store ptr %1, ptr %4, align 8
  %5 = load ptr, ptr %3, align 8
  %6 = load ptr, ptr %4, align 8
  call void @v9fs_memread(ptr noundef %5, ptr noundef %6, i64 noundef 1)
  ret void
}

; Function Attrs: nounwind sspstrong uwtable
define dso_local void @v9fs_uint64_read(ptr noundef %0, ptr noundef %1) #0 {
  %3 = alloca ptr, align 8
  %4 = alloca ptr, align 8
  store ptr %0, ptr %3, align 8
  store ptr %1, ptr %4, align 8
  %5 = load ptr, ptr %3, align 8
  %6 = load ptr, ptr %4, align 8
  call void @v9fs_memread(ptr noundef %5, ptr noundef %6, i64 noundef 8)
  %7 = load ptr, ptr %4, align 8
  call void @le64_to_cpus(ptr noundef %7)
  ret void
}

; Function Attrs: nounwind sspstrong uwtable
define dso_local void @v9fs_memread(ptr noundef %0, ptr noundef %1, i64 noundef %2) #0 {
  %4 = alloca ptr, align 8
  %5 = alloca ptr, align 8
  %6 = alloca i64, align 8
  store ptr %0, ptr %4, align 8
  store ptr %1, ptr %5, align 8
  store i64 %2, ptr %6, align 8
  %7 = load ptr, ptr %4, align 8
  %8 = getelementptr inbounds nuw %struct.P9Req, ptr %7, i32 0, i32 0
  %9 = load ptr, ptr %8, align 8
  %10 = load ptr, ptr %4, align 8
  %11 = getelementptr inbounds nuw %struct.P9Req, ptr %10, i32 0, i32 5
  %12 = load i64, ptr %11, align 8
  %13 = load ptr, ptr %4, align 8
  %14 = getelementptr inbounds nuw %struct.P9Req, ptr %13, i32 0, i32 7
  %15 = load i64, ptr %14, align 8
  %16 = add i64 %12, %15
  %17 = load ptr, ptr %5, align 8
  %18 = load i64, ptr %6, align 8
  call void @qtest_memread(ptr noundef %9, i64 noundef %16, ptr noundef %17, i64 noundef %18)
  %19 = load i64, ptr %6, align 8
  %20 = load ptr, ptr %4, align 8
  %21 = getelementptr inbounds nuw %struct.P9Req, ptr %20, i32 0, i32 7
  %22 = load i64, ptr %21, align 8
  %23 = add i64 %22, %19
  store i64 %23, ptr %21, align 8
  ret void
}

; Function Attrs: nounwind sspstrong uwtable
define dso_local void @v9fs_uint32_read(ptr noundef %0, ptr noundef %1) #0 {
  %3 = alloca ptr, align 8
  %4 = alloca ptr, align 8
  store ptr %0, ptr %3, align 8
  store ptr %1, ptr %4, align 8
  %5 = load ptr, ptr %3, align 8
  %6 = load ptr, ptr %4, align 8
  call void @v9fs_memread(ptr noundef %5, ptr noundef %6, i64 noundef 4)
  %7 = load ptr, ptr %4, align 8
  call void @le32_to_cpus(ptr noundef %7)
  ret void
}

; Function Attrs: nounwind sspstrong uwtable
define dso_local void @v9fs_rreaddir(ptr noundef %0, ptr noundef %1, ptr noundef %2, ptr noundef %3) #0 {
  %5 = alloca ptr, align 8
  %6 = alloca ptr, align 8
  %7 = alloca ptr, align 8
  %8 = alloca ptr, align 8
  %9 = alloca i32, align 4
  %10 = alloca ptr, align 8
  %11 = alloca ptr, align 8
  %12 = alloca i16, align 2
  %13 = alloca i32, align 4
  %14 = alloca i32, align 4
  %15 = alloca i64, align 8
  %16 = alloca i64, align 8
  %17 = alloca ptr, align 8
  %18 = alloca ptr, align 8
  %19 = alloca i64, align 8
  %20 = alloca i64, align 8
  %21 = alloca ptr, align 8
  %22 = alloca ptr, align 8
  store ptr %0, ptr %5, align 8
  store ptr %1, ptr %6, align 8
  store ptr %2, ptr %7, align 8
  store ptr %3, ptr %8, align 8
  call void @llvm.lifetime.start.p0(i64 4, ptr %9) #13
  store i32 0, ptr %9, align 4, !annotation !4
  call void @llvm.lifetime.start.p0(i64 8, ptr %10) #13
  store ptr null, ptr %10, align 8
  call void @llvm.lifetime.start.p0(i64 8, ptr %11) #13
  store ptr null, ptr %11, align 8
  call void @llvm.lifetime.start.p0(i64 2, ptr %12) #13
  store i16 0, ptr %12, align 2, !annotation !4
  call void @llvm.lifetime.start.p0(i64 4, ptr %13) #13
  store i32 0, ptr %13, align 4
  %23 = load ptr, ptr %5, align 8
  call void @v9fs_req_recv(ptr noundef %23, i8 noundef zeroext 41)
  %24 = load ptr, ptr %5, align 8
  call void @v9fs_uint32_read(ptr noundef %24, ptr noundef %9)
  %25 = load ptr, ptr %6, align 8
  %26 = icmp ne ptr %25, null
  br i1 %26, label %27, label %30

27:                                               ; preds = %4
  %28 = load i32, ptr %9, align 4
  %29 = load ptr, ptr %6, align 8
  store i32 %28, ptr %29, align 4
  br label %30

30:                                               ; preds = %27, %4
  call void @llvm.lifetime.start.p0(i64 4, ptr %14) #13
  %31 = load i32, ptr %9, align 4
  store i32 %31, ptr %14, align 4
  br label %32

32:                                               ; preds = %124, %30
  %33 = load i32, ptr %14, align 4
  %34 = icmp sge i32 %33, 24
  br i1 %34, label %36, label %35

35:                                               ; preds = %32
  call void @llvm.lifetime.end.p0(i64 4, ptr %14) #13
  br label %132

36:                                               ; preds = %32
  %37 = load ptr, ptr %10, align 8
  %38 = icmp ne ptr %37, null
  br i1 %38, label %77, label %39

39:                                               ; preds = %36
  call void @llvm.lifetime.start.p0(i64 8, ptr %15) #13
  store i64 1, ptr %15, align 8
  call void @llvm.lifetime.start.p0(i64 8, ptr %16) #13
  store i64 48, ptr %16, align 8
  call void @llvm.lifetime.start.p0(i64 8, ptr %17) #13
  store ptr null, ptr %17, align 8, !annotation !4
  %40 = load i64, ptr %16, align 8
  %41 = icmp eq i64 %40, 1
  br i1 %41, label %42, label %45

42:                                               ; preds = %39
  %43 = load i64, ptr %15, align 8
  %44 = call noalias ptr @g_malloc(i64 noundef %43) #15
  store ptr %44, ptr %17, align 8
  br label %66

45:                                               ; preds = %39
  %46 = load i64, ptr %15, align 8
  %47 = call i1 @llvm.is.constant.i64(i64 %46)
  br i1 %47, label %48, label %61

48:                                               ; preds = %45
  %49 = load i64, ptr %16, align 8
  %50 = icmp eq i64 %49, 0
  br i1 %50, label %56, label %51

51:                                               ; preds = %48
  %52 = load i64, ptr %15, align 8
  %53 = load i64, ptr %16, align 8
  %54 = udiv i64 -1, %53
  %55 = icmp ule i64 %52, %54
  br i1 %55, label %56, label %61

56:                                               ; preds = %51, %48
  %57 = load i64, ptr %15, align 8
  %58 = load i64, ptr %16, align 8
  %59 = mul i64 %57, %58
  %60 = call noalias ptr @g_malloc(i64 noundef %59) #15
  store ptr %60, ptr %17, align 8
  br label %65

61:                                               ; preds = %51, %45
  %62 = load i64, ptr %15, align 8
  %63 = load i64, ptr %16, align 8
  %64 = call noalias ptr @g_malloc_n(i64 noundef %62, i64 noundef %63) #16
  store ptr %64, ptr %17, align 8
  br label %65

65:                                               ; preds = %61, %56
  br label %66

66:                                               ; preds = %65, %42
  %67 = load ptr, ptr %17, align 8
  store ptr %67, ptr %18, align 8
  call void @llvm.lifetime.end.p0(i64 8, ptr %17) #13
  call void @llvm.lifetime.end.p0(i64 8, ptr %16) #13
  call void @llvm.lifetime.end.p0(i64 8, ptr %15) #13
  %68 = load ptr, ptr %18, align 8
  store ptr %68, ptr %10, align 8
  %69 = load ptr, ptr %8, align 8
  %70 = icmp ne ptr %69, null
  br i1 %70, label %71, label %74

71:                                               ; preds = %66
  %72 = load ptr, ptr %10, align 8
  %73 = load ptr, ptr %8, align 8
  store ptr %72, ptr %73, align 8
  br label %76

74:                                               ; preds = %66
  %75 = load ptr, ptr %10, align 8
  store ptr %75, ptr %11, align 8
  br label %76

76:                                               ; preds = %74, %71
  br label %109

77:                                               ; preds = %36
  call void @llvm.lifetime.start.p0(i64 8, ptr %19) #13
  store i64 1, ptr %19, align 8
  call void @llvm.lifetime.start.p0(i64 8, ptr %20) #13
  store i64 48, ptr %20, align 8
  call void @llvm.lifetime.start.p0(i64 8, ptr %21) #13
  store ptr null, ptr %21, align 8, !annotation !4
  %78 = load i64, ptr %20, align 8
  %79 = icmp eq i64 %78, 1
  br i1 %79, label %80, label %83

80:                                               ; preds = %77
  %81 = load i64, ptr %19, align 8
  %82 = call noalias ptr @g_malloc(i64 noundef %81) #15
  store ptr %82, ptr %21, align 8
  br label %104

83:                                               ; preds = %77
  %84 = load i64, ptr %19, align 8
  %85 = call i1 @llvm.is.constant.i64(i64 %84)
  br i1 %85, label %86, label %99

86:                                               ; preds = %83
  %87 = load i64, ptr %20, align 8
  %88 = icmp eq i64 %87, 0
  br i1 %88, label %94, label %89

89:                                               ; preds = %86
  %90 = load i64, ptr %19, align 8
  %91 = load i64, ptr %20, align 8
  %92 = udiv i64 -1, %91
  %93 = icmp ule i64 %90, %92
  br i1 %93, label %94, label %99

94:                                               ; preds = %89, %86
  %95 = load i64, ptr %19, align 8
  %96 = load i64, ptr %20, align 8
  %97 = mul i64 %95, %96
  %98 = call noalias ptr @g_malloc(i64 noundef %97) #15
  store ptr %98, ptr %21, align 8
  br label %103

99:                                               ; preds = %89, %83
  %100 = load i64, ptr %19, align 8
  %101 = load i64, ptr %20, align 8
  %102 = call noalias ptr @g_malloc_n(i64 noundef %100, i64 noundef %101) #16
  store ptr %102, ptr %21, align 8
  br label %103

103:                                              ; preds = %99, %94
  br label %104

104:                                              ; preds = %103, %80
  %105 = load ptr, ptr %21, align 8
  store ptr %105, ptr %22, align 8
  call void @llvm.lifetime.end.p0(i64 8, ptr %21) #13
  call void @llvm.lifetime.end.p0(i64 8, ptr %20) #13
  call void @llvm.lifetime.end.p0(i64 8, ptr %19) #13
  %106 = load ptr, ptr %22, align 8
  %107 = load ptr, ptr %10, align 8
  %108 = getelementptr inbounds nuw %struct.V9fsDirent, ptr %107, i32 0, i32 4
  store ptr %106, ptr %108, align 8
  store ptr %106, ptr %10, align 8
  br label %109

109:                                              ; preds = %104, %76
  %110 = load ptr, ptr %10, align 8
  %111 = getelementptr inbounds nuw %struct.V9fsDirent, ptr %110, i32 0, i32 4
  store ptr null, ptr %111, align 8
  %112 = load ptr, ptr %5, align 8
  %113 = load ptr, ptr %10, align 8
  %114 = getelementptr inbounds nuw %struct.V9fsDirent, ptr %113, i32 0, i32 0
  call void @v9fs_memread(ptr noundef %112, ptr noundef %114, i64 noundef 13)
  %115 = load ptr, ptr %5, align 8
  %116 = load ptr, ptr %10, align 8
  %117 = getelementptr inbounds nuw %struct.V9fsDirent, ptr %116, i32 0, i32 1
  call void @v9fs_uint64_read(ptr noundef %115, ptr noundef %117)
  %118 = load ptr, ptr %5, align 8
  %119 = load ptr, ptr %10, align 8
  %120 = getelementptr inbounds nuw %struct.V9fsDirent, ptr %119, i32 0, i32 2
  call void @v9fs_uint8_read(ptr noundef %118, ptr noundef %120)
  %121 = load ptr, ptr %5, align 8
  %122 = load ptr, ptr %10, align 8
  %123 = getelementptr inbounds nuw %struct.V9fsDirent, ptr %122, i32 0, i32 3
  call void @v9fs_string_read(ptr noundef %121, ptr noundef %12, ptr noundef %123)
  br label %124

124:                                              ; preds = %109
  %125 = load i16, ptr %12, align 2
  %126 = zext i16 %125 to i32
  %127 = add i32 24, %126
  %128 = load i32, ptr %14, align 4
  %129 = sub i32 %128, %127
  store i32 %129, ptr %14, align 4
  %130 = load i32, ptr %13, align 4
  %131 = add i32 %130, 1
  store i32 %131, ptr %13, align 4
  br label %32, !llvm.loop !13

132:                                              ; preds = %35
  %133 = load ptr, ptr %7, align 8
  %134 = icmp ne ptr %133, null
  br i1 %134, label %135, label %138

135:                                              ; preds = %132
  %136 = load i32, ptr %13, align 4
  %137 = load ptr, ptr %7, align 8
  store i32 %136, ptr %137, align 4
  br label %138

138:                                              ; preds = %135, %132
  %139 = load ptr, ptr %11, align 8
  call void @v9fs_free_dirents(ptr noundef %139)
  %140 = load ptr, ptr %5, align 8
  call void @v9fs_req_free(ptr noundef %140)
  call void @llvm.lifetime.end.p0(i64 4, ptr %13) #13
  call void @llvm.lifetime.end.p0(i64 2, ptr %12) #13
  call void @llvm.lifetime.end.p0(i64 8, ptr %11) #13
  call void @llvm.lifetime.end.p0(i64 8, ptr %10) #13
  call void @llvm.lifetime.end.p0(i64 4, ptr %9) #13
  ret void
}