; Function Attrs: nounwind sspstrong uwtable
define dso_local void @v9fs_rreaddir(ptr noundef %0, ptr noundef writeonly captures(address_is_null) %1, ptr noundef writeonly captures(address_is_null) %2, ptr noundef writeonly captures(address_is_null) %3) local_unnamed_addr #1 {
  %5 = alloca i16, align 2
  %6 = alloca i32, align 4
  call void @llvm.lifetime.start.p0(i64 4, ptr nonnull %6) #14
  store i32 0, ptr %6, align 4, !annotation !4
  tail call void @v9fs_req_recv(ptr noundef %0, i8 noundef zeroext 41)
  %7 = load ptr, ptr %0, align 8
  %8 = getelementptr inbounds nuw i8, ptr %0, i64 40
  %9 = load i64, ptr %8, align 8
  %10 = getelementptr inbounds nuw i8, ptr %0, i64 56
  %11 = load i64, ptr %10, align 8
  %12 = add i64 %11, %9
  call void @qtest_memread(ptr noundef %7, i64 noundef %12, ptr noundef nonnull %6, i64 noundef 4) #14
  %13 = load i64, ptr %10, align 8
  %14 = add i64 %13, 4
  store i64 %14, ptr %10, align 8
  %.not = icmp eq ptr %1, null
  %.pre = load i32, ptr %6, align 4
  br i1 %.not, label %16, label %15

15:                                               ; preds = %4
  store i32 %.pre, ptr %1, align 4
  br label %16

16:                                               ; preds = %15, %4
  %17 = icmp sgt i32 %.pre, 23
  br i1 %17, label %.lr.ph, label %._crit_edge

.lr.ph:                                           ; preds = %16
  %.not61 = icmp eq ptr %3, null
  br label %18

._crit_edge:                                      ; preds = %24, %16
  %.053.lcssa = phi i32 [ 0, %16 ], [ %68, %24 ]
  %.051.lcssa = phi ptr [ null, %16 ], [ %.152, %24 ]
  %.not59 = icmp eq ptr %2, null
  br i1 %.not59, label %71, label %70

18:                                               ; preds = %.lr.ph, %24
  %.066 = phi ptr [ null, %.lr.ph ], [ %19, %24 ]
  %.05165 = phi ptr [ null, %.lr.ph ], [ %.152, %24 ]
  %.05364 = phi i32 [ 0, %.lr.ph ], [ %68, %24 ]
  %.05463 = phi i32 [ %.pre, %.lr.ph ], [ %67, %24 ]
  %.not60 = icmp eq ptr %.066, null
  %19 = call noalias dereferenceable_or_null(48) ptr @g_malloc(i64 noundef 48) #16
  br i1 %.not60, label %20, label %22

20:                                               ; preds = %18
  br i1 %.not61, label %24, label %21

21:                                               ; preds = %20
  store ptr %19, ptr %3, align 8
  br label %24

22:                                               ; preds = %18
  %23 = getelementptr inbounds nuw i8, ptr %.066, i64 40
  store ptr %19, ptr %23, align 8
  br label %24

24:                                               ; preds = %20, %21, %22
  %.152 = phi ptr [ %.05165, %22 ], [ %.05165, %21 ], [ %19, %20 ]
  %25 = getelementptr inbounds nuw i8, ptr %19, i64 40
  store ptr null, ptr %25, align 8
  %26 = load ptr, ptr %0, align 8
  %27 = load i64, ptr %8, align 8
  %28 = load i64, ptr %10, align 8
  %29 = add i64 %28, %27
  call void @qtest_memread(ptr noundef %26, i64 noundef %29, ptr noundef %19, i64 noundef 13) #14
  %30 = load i64, ptr %10, align 8
  %31 = add i64 %30, 13
  store i64 %31, ptr %10, align 8
  %32 = getelementptr inbounds nuw i8, ptr %19, i64 16
  %33 = load ptr, ptr %0, align 8
  %34 = load i64, ptr %8, align 8
  %35 = add i64 %34, %31
  call void @qtest_memread(ptr noundef %33, i64 noundef %35, ptr noundef nonnull %32, i64 noundef 8) #14
  %36 = load i64, ptr %10, align 8
  %37 = add i64 %36, 8
  store i64 %37, ptr %10, align 8
  %38 = getelementptr inbounds nuw i8, ptr %19, i64 24
  %39 = load ptr, ptr %0, align 8
  %40 = load i64, ptr %8, align 8
  %41 = add i64 %40, %37
  call void @qtest_memread(ptr noundef %39, i64 noundef %41, ptr noundef nonnull %38, i64 noundef 1) #14
  %42 = load i64, ptr %10, align 8
  %43 = add i64 %42, 1
  store i64 %43, ptr %10, align 8
  %44 = getelementptr inbounds nuw i8, ptr %19, i64 32
  call void @llvm.lifetime.start.p0(i64 2, ptr nonnull %5) #14
  store i16 0, ptr %5, align 2, !annotation !4
  %45 = load ptr, ptr %0, align 8
  %46 = load i64, ptr %8, align 8
  %47 = add i64 %46, %43
  call void @qtest_memread(ptr noundef %45, i64 noundef %47, ptr noundef nonnull %5, i64 noundef 2) #14
  %48 = load i64, ptr %10, align 8
  %49 = add i64 %48, 2
  store i64 %49, ptr %10, align 8
  %50 = load i16, ptr %5, align 2
  %51 = zext i16 %50 to i64
  %52 = add nuw nsw i64 %51, 1
  %53 = call noalias ptr @g_malloc(i64 noundef %52) #16
  store ptr %53, ptr %44, align 8
  %54 = load i16, ptr %5, align 2
  %55 = zext i16 %54 to i64
  %56 = load ptr, ptr %0, align 8
  %57 = load i64, ptr %8, align 8
  %58 = load i64, ptr %10, align 8
  %59 = add i64 %58, %57
  call void @qtest_memread(ptr noundef %56, i64 noundef %59, ptr noundef %53, i64 noundef %55) #14
  %60 = load i64, ptr %10, align 8
  %61 = add i64 %60, %55
  store i64 %61, ptr %10, align 8
  %62 = load ptr, ptr %44, align 8
  %63 = load i16, ptr %5, align 2
  %64 = zext i16 %63 to i64
  %65 = getelementptr inbounds nuw i8, ptr %62, i64 %64
  store i8 0, ptr %65, align 1
  call void @llvm.lifetime.end.p0(i64 2, ptr nonnull %5) #14
  %66 = zext i16 %50 to i32
  %.neg62 = add nsw i32 %.05463, -24
  %67 = sub nsw i32 %.neg62, %66
  %68 = add i32 %.05364, 1
  %69 = icmp sgt i32 %67, 23
  br i1 %69, label %18, label %._crit_edge, !llvm.loop !14

70:                                               ; preds = %._crit_edge
  store i32 %.053.lcssa, ptr %2, align 4
  br label %71

71:                                               ; preds = %70, %._crit_edge
  %.not5.i = icmp eq ptr %.051.lcssa, null
  br i1 %.not5.i, label %v9fs_free_dirents.exit, label %.lr.ph.i

.lr.ph.i:                                         ; preds = %71, %.lr.ph.i
  %.06.i = phi ptr [ %73, %.lr.ph.i ], [ %.051.lcssa, %71 ]
  %72 = getelementptr inbounds nuw i8, ptr %.06.i, i64 40
  %73 = load ptr, ptr %72, align 8
  %74 = getelementptr inbounds nuw i8, ptr %.06.i, i64 32
  %75 = load ptr, ptr %74, align 8
  call void @g_free(ptr noundef %75) #14
  call void @g_free(ptr noundef nonnull %.06.i) #14
  %.not.i = icmp eq ptr %73, null
  br i1 %.not.i, label %v9fs_free_dirents.exit, label %.lr.ph.i, !llvm.loop !15

v9fs_free_dirents.exit:                           ; preds = %.lr.ph.i, %71
  %76 = load ptr, ptr @alloc, align 8
  %77 = getelementptr inbounds nuw i8, ptr %0, i64 24
  %78 = load i64, ptr %77, align 8
  call void @guest_free(ptr noundef %76, i64 noundef %78) #14
  %79 = load ptr, ptr @alloc, align 8
  %80 = load i64, ptr %8, align 8
  call void @guest_free(ptr noundef %79, i64 noundef %80) #14
  call void @g_free(ptr noundef nonnull %0) #14
  call void @llvm.lifetime.end.p0(i64 4, ptr nonnull %6) #14
  ret void
}